ARM GAS  /var/folders/kw/_ttbspv15096pc01cxzg7nyh0000gn/T//ccWZKuSb.s 			page 1


   1              		.file	"task-list.c"
   2              	@ GNU C (GCC) version 4.6.1 (arm-elf)
   3              	@	compiled by GNU C version 4.0.1 (Apple Inc. build 5494), GMP version 5.0.2, MPFR version 3.0.1, M
   4              	@ GGC heuristics: --param ggc-min-expand=100 --param ggc-min-heapsize=131072
   5              	@ options passed:  -I sources -I /usr/local/dev-arm/arm-dev-files/sources
   6              	@ -I ../sources-communs
   7              	@ -iprefix /usr/local/dev-arm/i386-Darwin-arm-gcc-4.6.1/bin/../lib/gcc/arm-elf/4.6.1/
   8              	@ -MD zBUILDS/task-list.c.d -MF zBUILDS/task-list.c.o.dep -MP
   9              	@ -MQ zBUILDS/task-list.c.o -D__USES_INITFINI__ -D XTR_CLASS=0
  10              	@ -D LPC22XX_CRYSTAL_FREQUENCY=14745600
  11              	@ -D LPC22XX_PLL_FREQUENCY_MULTIPLIER=4 -D LPC22XX_APB_DIVIDER=1
  12              	@ ../sources-communs/task-list.c -mcpu=arm7tdmi-s -mcpu=arm7tdmi-s
  13              	@ -auxbase-strip zBUILDS/task-list.c.o -O2 -Wall -Werror -Wreturn-type
  14              	@ -Wformat -Wsign-compare -Wpointer-arith -Wparentheses -Wcast-align
  15              	@ -Wcast-qual -Wwrite-strings -Wswitch -Wstrict-prototypes
  16              	@ -Wbad-function-cast -Wmissing-declarations
  17              	@ -Wimplicit-function-declaration -Wno-int-to-pointer-cast
  18              	@ -Wno-pointer-to-int-cast -fverbose-asm -fomit-frame-pointer
  19              	@ -foptimize-register-move
  20              	@ options enabled:  -fauto-inc-dec -fbranch-count-reg -fcaller-saves
  21              	@ -fcombine-stack-adjustments -fcommon -fcompare-elim -fcprop-registers
  22              	@ -fcrossjumping -fcse-follow-jumps -fdefer-pop
  23              	@ -fdelete-null-pointer-checks -fdevirtualize -fdwarf2-cfi-asm
  24              	@ -fearly-inlining -feliminate-unused-debug-types -fexpensive-optimizations
  25              	@ -fforward-propagate -ffunction-cse -fgcse -fgcse-lm
  26              	@ -fguess-branch-probability -fident -fif-conversion -fif-conversion2
  27              	@ -findirect-inlining -finline -finline-functions-called-once
  28              	@ -finline-small-functions -fipa-cp -fipa-profile -fipa-pure-const
  29              	@ -fipa-reference -fipa-sra -fira-share-save-slots -fira-share-spill-slots
  30              	@ -fivopts -fkeep-static-consts -fleading-underscore -fmath-errno
  31              	@ -fmerge-constants -fmerge-debug-strings -fmove-loop-invariants
  32              	@ -fomit-frame-pointer -foptimize-register-move -foptimize-sibling-calls
  33              	@ -fpartial-inlining -fpeephole -fpeephole2 -fprefetch-loop-arrays
  34              	@ -freg-struct-return -fregmove -freorder-blocks -freorder-functions
  35              	@ -frerun-cse-after-loop -fsched-critical-path-heuristic
  36              	@ -fsched-dep-count-heuristic -fsched-group-heuristic -fsched-interblock
  37              	@ -fsched-last-insn-heuristic -fsched-rank-heuristic -fsched-spec
  38              	@ -fsched-spec-insn-heuristic -fsched-stalled-insns-dep -fschedule-insns
  39              	@ -fschedule-insns2 -fsection-anchors -fshow-column -fsigned-zeros
  40              	@ -fsplit-ivs-in-unroller -fsplit-wide-types -fstrict-aliasing
  41              	@ -fstrict-overflow -fstrict-volatile-bitfields -fthread-jumps
  42              	@ -ftoplevel-reorder -ftrapping-math -ftree-bit-ccp -ftree-builtin-call-dce
  43              	@ -ftree-ccp -ftree-ch -ftree-copy-prop -ftree-copyrename -ftree-cselim
  44              	@ -ftree-dce -ftree-dominator-opts -ftree-dse -ftree-forwprop -ftree-fre
  45              	@ -ftree-loop-if-convert -ftree-loop-im -ftree-loop-ivcanon
  46              	@ -ftree-loop-optimize -ftree-parallelize-loops= -ftree-phiprop -ftree-pre
  47              	@ -ftree-pta -ftree-reassoc -ftree-scev-cprop -ftree-sink
  48              	@ -ftree-slp-vectorize -ftree-sra -ftree-switch-conversion -ftree-ter
  49              	@ -ftree-vect-loop-version -ftree-vrp -funit-at-a-time -fverbose-asm
  50              	@ -fzero-initialized-in-bss -mlittle-endian -msched-prolog
  51              	
  52              	@ Compiler executable checksum: de80e2dacb9f8abf918a9a189330559b
  53              	
  54              		.text
  55              		.align	2
  56              		.global	initTaskList
  57              		.type	initTaskList, %function
ARM GAS  /var/folders/kw/_ttbspv15096pc01cxzg7nyh0000gn/T//ccWZKuSb.s 			page 2


  58              	initTaskList:
  59              		@ args = 0, pretend = 0, frame = 0
  60              		@ frame_needed = 0, uses_anonymous_args = 0
  61              		@ link register save eliminated.
  62 0000 0030A0E3 		mov	r3, #0	@ tmp135,
  63 0004 003080E5 		str	r3, [r0, #0]	@ tmp135, inTaskList_1(D)->mFirstTask
  64 0008 043080E5 		str	r3, [r0, #4]	@ tmp135, inTaskList_1(D)->mLastTask
  65 000c 1EFF2FE1 		bx	lr	@
  66              		.size	initTaskList, .-initTaskList
  67              		.align	2
  68              		.global	insertTaskAtTail
  69              		.type	insertTaskAtTail, %function
  70              	insertTaskAtTail:
  71              		@ args = 0, pretend = 0, frame = 0
  72              		@ frame_needed = 0, uses_anonymous_args = 0
  73              		@ link register save eliminated.
  74 0010 000051E3 		cmp	r1, #0	@ inTaskDescriptor
  75 0014 1EFF2F01 		bxeq	lr	@
  76 0018 043090E5 		ldr	r3, [r0, #4]	@ D.2069, inTaskList_2(D)->mLastTask
  77 001c 0020A0E3 		mov	r2, #0	@ tmp137,
  78 0020 000053E3 		cmp	r3, #0	@ D.2069,
  79 0024 082081E5 		str	r2, [r1, #8]	@ tmp137, inTaskDescriptor_1(D)->mNextTaskInList
  80 0028 0C3081E5 		str	r3, [r1, #12]	@ D.2069, inTaskDescriptor_1(D)->mPreviousTaskInList
  81 002c 08108315 		strne	r1, [r3, #8]	@ inTaskDescriptor, D.2069_3->mNextTaskInList
  82 0030 0030A0E3 		mov	r3, #0	@ tmp138,
  83 0034 00108005 		streq	r1, [r0, #0]	@ inTaskDescriptor, inTaskList_2(D)->mFirstTask
  84 0038 041080E5 		str	r1, [r0, #4]	@ inTaskDescriptor, inTaskList_2(D)->mLastTask
  85 003c 100081E5 		str	r0, [r1, #16]	@ inTaskList, inTaskDescriptor_1(D)->mMyTaskList
  86 0040 0530C1E5 		strb	r3, [r1, #5]	@ tmp138, inTaskDescriptor_1(D)->mIsInListOrderedByPriority
  87 0044 1EFF2FE1 		bx	lr	@
  88              		.size	insertTaskAtTail, .-insertTaskAtTail
  89              		.align	2
  90              		.global	insertTaskFollowingPriority
  91              		.type	insertTaskFollowingPriority, %function
  92              	insertTaskFollowingPriority:
  93              		@ args = 0, pretend = 0, frame = 0
  94              		@ frame_needed = 0, uses_anonymous_args = 0
  95              		@ link register save eliminated.
  96 0048 000051E3 		cmp	r1, #0	@ inTaskDescriptor
  97 004c 1EFF2F01 		bxeq	lr	@
  98 0050 0130A0E3 		mov	r3, #1	@ tmp147,
  99 0054 0530C1E5 		strb	r3, [r1, #5]	@ tmp147, inTaskDescriptor_2(D)->mIsInListOrderedByPriority
 100 0058 003090E5 		ldr	r3, [r0, #0]	@ D.2052, inTaskList_3(D)->mFirstTask
 101 005c 0020A0E3 		mov	r2, #0	@ tmp149,
 102 0060 020053E1 		cmp	r3, r2	@ D.2052,
 103 0064 100081E5 		str	r0, [r1, #16]	@ inTaskList, inTaskDescriptor_2(D)->mMyTaskList
 104 0068 082081E5 		str	r2, [r1, #8]	@ tmp149, inTaskDescriptor_2(D)->mNextTaskInList
 105 006c 0C2081E5 		str	r2, [r1, #12]	@ tmp149, inTaskDescriptor_2(D)->mPreviousTaskInList
 106 0070 04108005 		streq	r1, [r0, #4]	@ inTaskDescriptor, inTaskList_3(D)->mLastTask
 107 0074 00108005 		streq	r1, [r0, #0]	@ inTaskDescriptor, inTaskList_3(D)->mFirstTask
 108 0078 1EFF2F01 		bxeq	lr	@
 109 007c 04C0D1E5 		ldrb	ip, [r1, #4]	@ zero_extendqisi2	@ D.2057, inTaskDescriptor_2(D)->mPriority
 110 0080 0420D3E5 		ldrb	r2, [r3, #4]	@ zero_extendqisi2	@ D.2052_4->mPriority, D.2052_4->mPriority
 111 0084 0C0052E1 		cmp	r2, ip	@ D.2052_4->mPriority, D.2057
 112 0088 08308185 		strhi	r3, [r1, #8]	@ D.2052, inTaskDescriptor_2(D)->mNextTaskInList
 113 008c 0C108385 		strhi	r1, [r3, #12]	@ inTaskDescriptor, D.2052_4->mPreviousTaskInList
 114 0090 00108085 		strhi	r1, [r0, #0]	@ inTaskDescriptor, inTaskList_3(D)->mFirstTask
ARM GAS  /var/folders/kw/_ttbspv15096pc01cxzg7nyh0000gn/T//ccWZKuSb.s 			page 3


 115 0094 1EFF2F81 		bxhi	lr	@
 116 0098 043090E5 		ldr	r3, [r0, #4]	@ D.2061, inTaskList_3(D)->mLastTask
 117 009c 0420D3E5 		ldrb	r2, [r3, #4]	@ zero_extendqisi2	@ D.2061_10->mPriority, D.2061_10->mPriority
 118 00a0 0C0052E1 		cmp	r2, ip	@ D.2061_10->mPriority, D.2057
 119 00a4 0C308195 		strls	r3, [r1, #12]	@ D.2061, inTaskDescriptor_2(D)->mPreviousTaskInList
 120 00a8 08108395 		strls	r1, [r3, #8]	@ inTaskDescriptor, D.2061_10->mNextTaskInList
 121 00ac 04108095 		strls	r1, [r0, #4]	@ inTaskDescriptor, inTaskList_3(D)->mLastTask
 122 00b0 1EFF2F91 		bxls	lr	@
 123              	.L11:
 124 00b4 0C3093E5 		ldr	r3, [r3, #12]	@ t,
 125 00b8 0420D3E5 		ldrb	r2, [r3, #4]	@ zero_extendqisi2	@ t_16->mPriority,
 126 00bc 0C0052E1 		cmp	r2, ip	@ t_16->mPriority, D.2057
 127 00c0 FBFFFF8A 		bhi	.L11	@,
 128 00c4 082093E5 		ldr	r2, [r3, #8]	@ taskAfter, t_18->mNextTaskInList
 129 00c8 081083E5 		str	r1, [r3, #8]	@ inTaskDescriptor, t_18->mNextTaskInList
 130 00cc 0C1082E5 		str	r1, [r2, #12]	@ inTaskDescriptor, taskAfter_20->mPreviousTaskInList
 131 00d0 082081E5 		str	r2, [r1, #8]	@ taskAfter, inTaskDescriptor_2(D)->mNextTaskInList
 132 00d4 0C3081E5 		str	r3, [r1, #12]	@ t, inTaskDescriptor_2(D)->mPreviousTaskInList
 133 00d8 1EFF2FE1 		bx	lr	@
 134              		.size	insertTaskFollowingPriority, .-insertTaskFollowingPriority
 135              		.align	2
 136              		.global	taskAtHead
 137              		.type	taskAtHead, %function
 138              	taskAtHead:
 139              		@ args = 0, pretend = 0, frame = 0
 140              		@ frame_needed = 0, uses_anonymous_args = 0
 141              		@ link register save eliminated.
 142 00dc 000090E5 		ldr	r0, [r0, #0]	@, inTaskList_1(D)->mFirstTask
 143 00e0 1EFF2FE1 		bx	lr	@
 144              		.size	taskAtHead, .-taskAtHead
 145              		.align	2
 146              		.global	removeTaskAtHead
 147              		.type	removeTaskAtHead, %function
 148              	removeTaskAtHead:
 149              		@ args = 0, pretend = 0, frame = 0
 150              		@ frame_needed = 0, uses_anonymous_args = 0
 151              		@ link register save eliminated.
 152 00e4 003090E5 		ldr	r3, [r0, #0]	@ t, inTaskList_1(D)->mFirstTask
 153 00e8 000053E3 		cmp	r3, #0	@ t,
 154 00ec 0C00000A 		beq	.L18	@,
 155 00f0 082093E5 		ldr	r2, [r3, #8]	@ D.2038, t_2->mNextTaskInList
 156 00f4 0C1093E5 		ldr	r1, [r3, #12]	@ D.2041, t_2->mPreviousTaskInList
 157 00f8 000052E3 		cmp	r2, #0	@ D.2038,
 158 00fc 0C108215 		strne	r1, [r2, #12]	@ D.2041, D.2038_3->mPreviousTaskInList
 159 0100 0C109315 		ldrne	r1, [r3, #12]	@ D.2041, t_2->mPreviousTaskInList
 160 0104 04108005 		streq	r1, [r0, #4]	@ D.2041, inTaskList_1(D)->mLastTask
 161 0108 000051E3 		cmp	r1, #0	@ D.2041,
 162 010c 00208005 		streq	r2, [r0, #0]	@ D.2038, inTaskList_1(D)->mFirstTask
 163 0110 08208115 		strne	r2, [r1, #8]	@ D.2038, D.2041_7->mNextTaskInList
 164 0114 0020A0E3 		mov	r2, #0	@ tmp142,
 165 0118 102083E5 		str	r2, [r3, #16]	@ tmp142, t_2->mMyTaskList
 166 011c 082083E5 		str	r2, [r3, #8]	@ tmp142, t_2->mNextTaskInList
 167 0120 0C2083E5 		str	r2, [r3, #12]	@ tmp142, t_2->mPreviousTaskInList
 168              	.L18:
 169 0124 0300A0E1 		mov	r0, r3	@, t
 170 0128 1EFF2FE1 		bx	lr	@
 171              		.size	removeTaskAtHead, .-removeTaskAtHead
ARM GAS  /var/folders/kw/_ttbspv15096pc01cxzg7nyh0000gn/T//ccWZKuSb.s 			page 4


 172              		.align	2
 173              		.global	removeFromCurrentTaskList
 174              		.type	removeFromCurrentTaskList, %function
 175              	removeFromCurrentTaskList:
 176              		@ args = 0, pretend = 0, frame = 0
 177              		@ frame_needed = 0, uses_anonymous_args = 0
 178              		@ link register save eliminated.
 179 012c 000050E3 		cmp	r0, #0	@ inTaskDescriptor
 180 0130 1EFF2F01 		bxeq	lr	@
 181 0134 101090E5 		ldr	r1, [r0, #16]	@ D.2025, inTaskDescriptor_1(D)->mMyTaskList
 182 0138 000051E3 		cmp	r1, #0	@ D.2025,
 183 013c 1EFF2F01 		bxeq	lr	@
 184 0140 083090E5 		ldr	r3, [r0, #8]	@ D.2028, inTaskDescriptor_1(D)->mNextTaskInList
 185 0144 0C2090E5 		ldr	r2, [r0, #12]	@ D.2031, inTaskDescriptor_1(D)->mPreviousTaskInList
 186 0148 000053E3 		cmp	r3, #0	@ D.2028,
 187 014c 0C208315 		strne	r2, [r3, #12]	@ D.2031, D.2028_4->mPreviousTaskInList
 188 0150 0C209015 		ldrne	r2, [r0, #12]	@ D.2031, inTaskDescriptor_1(D)->mPreviousTaskInList
 189 0154 04208105 		streq	r2, [r1, #4]	@ D.2031, MEM[(struct task_list *)D.2025_2].mLastTask
 190 0158 000052E3 		cmp	r2, #0	@ D.2031,
 191 015c 00308105 		streq	r3, [r1, #0]	@ D.2028, MEM[(struct task_list *)D.2025_2].mFirstTask
 192 0160 08308215 		strne	r3, [r2, #8]	@ D.2028, D.2031_8->mNextTaskInList
 193 0164 0030A0E3 		mov	r3, #0	@ tmp141,
 194 0168 0C3080E5 		str	r3, [r0, #12]	@ tmp141, inTaskDescriptor_1(D)->mPreviousTaskInList
 195 016c 083080E5 		str	r3, [r0, #8]	@ tmp141, inTaskDescriptor_1(D)->mNextTaskInList
 196 0170 103080E5 		str	r3, [r0, #16]	@ tmp141, inTaskDescriptor_1(D)->mMyTaskList
 197 0174 1EFF2FE1 		bx	lr	@
 198              		.size	removeFromCurrentTaskList, .-removeFromCurrentTaskList
 199              		.ident	"GCC: (GNU) 4.6.1"
ARM GAS  /var/folders/kw/_ttbspv15096pc01cxzg7nyh0000gn/T//ccWZKuSb.s 			page 5

