ARM GAS  /var/folders/kw/_ttbspv15096pc01cxzg7nyh0000gn/T//ccBTqpiA.s 			page 1


   1              		.file	"afficheur_lcd.c"
   2              	@ GNU C (GCC) version 4.6.1 (arm-elf)
   3              	@	compiled by GNU C version 4.0.1 (Apple Inc. build 5494), GMP version 5.0.2, MPFR version 3.0.1, M
   4              	@ GGC heuristics: --param ggc-min-expand=100 --param ggc-min-heapsize=131072
   5              	@ options passed:  -I sources -I /usr/local/dev-arm/arm-dev-files/sources
   6              	@ -I ../sources-communs
   7              	@ -iprefix /usr/local/dev-arm/i386-Darwin-arm-gcc-4.6.1/bin/../lib/gcc/arm-elf/4.6.1/
   8              	@ -MD zBUILDS/afficheur_lcd.c.d -MF zBUILDS/afficheur_lcd.c.o.dep -MP
   9              	@ -MQ zBUILDS/afficheur_lcd.c.o -D__USES_INITFINI__ -D XTR_CLASS=0
  10              	@ -D LPC22XX_CRYSTAL_FREQUENCY=14745600
  11              	@ -D LPC22XX_PLL_FREQUENCY_MULTIPLIER=4 -D LPC22XX_APB_DIVIDER=1
  12              	@ ../sources-communs/afficheur_lcd.c -mcpu=arm7tdmi-s -mcpu=arm7tdmi-s
  13              	@ -auxbase-strip zBUILDS/afficheur_lcd.c.o -O2 -Wall -Werror -Wreturn-type
  14              	@ -Wformat -Wsign-compare -Wpointer-arith -Wparentheses -Wcast-align
  15              	@ -Wcast-qual -Wwrite-strings -Wswitch -Wstrict-prototypes
  16              	@ -Wbad-function-cast -Wmissing-declarations
  17              	@ -Wimplicit-function-declaration -Wno-int-to-pointer-cast
  18              	@ -Wno-pointer-to-int-cast -fverbose-asm -fomit-frame-pointer
  19              	@ -foptimize-register-move
  20              	@ options enabled:  -fauto-inc-dec -fbranch-count-reg -fcaller-saves
  21              	@ -fcombine-stack-adjustments -fcommon -fcompare-elim -fcprop-registers
  22              	@ -fcrossjumping -fcse-follow-jumps -fdefer-pop
  23              	@ -fdelete-null-pointer-checks -fdevirtualize -fdwarf2-cfi-asm
  24              	@ -fearly-inlining -feliminate-unused-debug-types -fexpensive-optimizations
  25              	@ -fforward-propagate -ffunction-cse -fgcse -fgcse-lm
  26              	@ -fguess-branch-probability -fident -fif-conversion -fif-conversion2
  27              	@ -findirect-inlining -finline -finline-functions-called-once
  28              	@ -finline-small-functions -fipa-cp -fipa-profile -fipa-pure-const
  29              	@ -fipa-reference -fipa-sra -fira-share-save-slots -fira-share-spill-slots
  30              	@ -fivopts -fkeep-static-consts -fleading-underscore -fmath-errno
  31              	@ -fmerge-constants -fmerge-debug-strings -fmove-loop-invariants
  32              	@ -fomit-frame-pointer -foptimize-register-move -foptimize-sibling-calls
  33              	@ -fpartial-inlining -fpeephole -fpeephole2 -fprefetch-loop-arrays
  34              	@ -freg-struct-return -fregmove -freorder-blocks -freorder-functions
  35              	@ -frerun-cse-after-loop -fsched-critical-path-heuristic
  36              	@ -fsched-dep-count-heuristic -fsched-group-heuristic -fsched-interblock
  37              	@ -fsched-last-insn-heuristic -fsched-rank-heuristic -fsched-spec
  38              	@ -fsched-spec-insn-heuristic -fsched-stalled-insns-dep -fschedule-insns
  39              	@ -fschedule-insns2 -fsection-anchors -fshow-column -fsigned-zeros
  40              	@ -fsplit-ivs-in-unroller -fsplit-wide-types -fstrict-aliasing
  41              	@ -fstrict-overflow -fstrict-volatile-bitfields -fthread-jumps
  42              	@ -ftoplevel-reorder -ftrapping-math -ftree-bit-ccp -ftree-builtin-call-dce
  43              	@ -ftree-ccp -ftree-ch -ftree-copy-prop -ftree-copyrename -ftree-cselim
  44              	@ -ftree-dce -ftree-dominator-opts -ftree-dse -ftree-forwprop -ftree-fre
  45              	@ -ftree-loop-if-convert -ftree-loop-im -ftree-loop-ivcanon
  46              	@ -ftree-loop-optimize -ftree-parallelize-loops= -ftree-phiprop -ftree-pre
  47              	@ -ftree-pta -ftree-reassoc -ftree-scev-cprop -ftree-sink
  48              	@ -ftree-slp-vectorize -ftree-sra -ftree-switch-conversion -ftree-ter
  49              	@ -ftree-vect-loop-version -ftree-vrp -funit-at-a-time -fverbose-asm
  50              	@ -fzero-initialized-in-bss -mlittle-endian -msched-prolog
  51              	
  52              	@ Compiler executable checksum: de80e2dacb9f8abf918a9a189330559b
  53              	
  54              		.text
  55              		.align	2
  56              		.global	lcd_goto_line_column
  57              		.type	lcd_goto_line_column, %function
ARM GAS  /var/folders/kw/_ttbspv15096pc01cxzg7nyh0000gn/T//ccBTqpiA.s 			page 2


  58              	lcd_goto_line_column:
  59              		@ args = 0, pretend = 0, frame = 0
  60              		@ frame_needed = 0, uses_anonymous_args = 0
  61              		@ link register save eliminated.
  62 0000 030050E3 		cmp	r0, #3	@ inLine,
  63 0004 0300A023 		movcs	r0, #3	@ tmp146,
  64 0008 000180E0 		add	r0, r0, r0, asl #2	@, tmp149, tmp146, tmp146,
  65 000c 0001A0E1 		mov	r0, r0, asl #2	@ tmp150, tmp149,
  66 0010 130051E3 		cmp	r1, #19	@ inColumn,
  67 0014 01008090 		addls	r0, r0, r1	@,, tmp151, tmp150, inColumn
  68 0018 13008082 		addhi	r0, r0, #19	@,, tmp151, tmp150,
  69 001c 800080E2 		add	r0, r0, #128	@ tmp152, tmp151,
  70 0020 18209FE5 		ldr	r2, .L5	@ tmp159,
  71 0024 FF0000E2 		and	r0, r0, #255	@ D.2139, tmp152,
  72              	.L2:
  73 0028 1430D2E5 		ldrb	r3, [r2, #20]	@ zero_extendqisi2	@ MEM[(volatile uint8 *)-536805356B], MEM[(volatile uint8 *)
  74 002c 200013E3 		tst	r3, #32	@ MEM[(volatile uint8 *)-536805356B],
  75 0030 FCFFFF0A 		beq	.L2	@,
  76 0034 04309FE5 		ldr	r3, .L5	@ tmp153,
  77 0038 0000C3E5 		strb	r0, [r3, #0]	@ D.2139, MEM[(volatile uint8 *)-536805376B]
  78 003c 1EFF2FE1 		bx	lr	@
  79              	.L6:
  80              		.align	2
  81              	.L5:
  82 0040 000001E0 		.word	-536805376
  83              		.size	lcd_goto_line_column, .-lcd_goto_line_column
  84              		.align	2
  85              		.global	lcd_backlight
  86              		.type	lcd_backlight, %function
  87              	lcd_backlight:
  88              		@ args = 0, pretend = 0, frame = 0
  89              		@ frame_needed = 0, uses_anonymous_args = 0
  90              		@ link register save eliminated.
  91 0044 301040E2 		sub	r1, r0, #48	@ tmp140, inBacklightOn,
  92 0048 18209FE5 		ldr	r2, .L10	@ tmp147,
  93 004c FF1001E2 		and	r1, r1, #255	@ D.2135, tmp140,
  94              	.L8:
  95 0050 1430D2E5 		ldrb	r3, [r2, #20]	@ zero_extendqisi2	@ MEM[(volatile uint8 *)-536805356B], MEM[(volatile uint8 *)
  96 0054 200013E3 		tst	r3, #32	@ MEM[(volatile uint8 *)-536805356B],
  97 0058 FCFFFF0A 		beq	.L8	@,
  98 005c 04309FE5 		ldr	r3, .L10	@ tmp141,
  99 0060 0010C3E5 		strb	r1, [r3, #0]	@ D.2135, MEM[(volatile uint8 *)-536805376B]
 100 0064 1EFF2FE1 		bx	lr	@
 101              	.L11:
 102              		.align	2
 103              	.L10:
 104 0068 000001E0 		.word	-536805376
 105              		.size	lcd_backlight, .-lcd_backlight
 106              		.align	2
 107              		.global	lcd_print_char
 108              		.type	lcd_print_char, %function
 109              	lcd_print_char:
 110              		@ args = 0, pretend = 0, frame = 0
 111              		@ frame_needed = 0, uses_anonymous_args = 0
 112              		@ link register save eliminated.
 113 006c 18209FE5 		ldr	r2, .L15	@ tmp145,
 114 0070 FF0000E2 		and	r0, r0, #255	@ inChar, inChar,
ARM GAS  /var/folders/kw/_ttbspv15096pc01cxzg7nyh0000gn/T//ccBTqpiA.s 			page 3


 115              	.L13:
 116 0074 1430D2E5 		ldrb	r3, [r2, #20]	@ zero_extendqisi2	@ MEM[(volatile uint8 *)-536805356B], MEM[(volatile uint8 *)
 117 0078 200013E3 		tst	r3, #32	@ MEM[(volatile uint8 *)-536805356B],
 118 007c FCFFFF0A 		beq	.L13	@,
 119 0080 04309FE5 		ldr	r3, .L15	@ tmp139,
 120 0084 0000C3E5 		strb	r0, [r3, #0]	@ inChar, MEM[(volatile uint8 *)-536805376B]
 121 0088 1EFF2FE1 		bx	lr	@
 122              	.L16:
 123              		.align	2
 124              	.L15:
 125 008c 000001E0 		.word	-536805376
 126              		.size	lcd_print_char, .-lcd_print_char
 127              		.align	2
 128              		.global	lcd_print_string
 129              		.type	lcd_print_string, %function
 130              	lcd_print_string:
 131              		@ args = 0, pretend = 0, frame = 0
 132              		@ frame_needed = 0, uses_anonymous_args = 0
 133              		@ link register save eliminated.
 134 0090 0010D0E5 		ldrb	r1, [r0, #0]	@ zero_extendqisi2	@ D.2132, *inChaine_2(D)
 135 0094 000051E3 		cmp	r1, #0	@ D.2132,
 136 0098 1EFF2F01 		bxeq	lr	@
 137 009c 1C209FE5 		ldr	r2, .L24	@ tmp175,
 138              	.L23:
 139 00a0 1430D2E5 		ldrb	r3, [r2, #20]	@ zero_extendqisi2	@ MEM[(volatile uint8 *)-536805356B], MEM[(volatile uint8 *)
 140 00a4 200013E3 		tst	r3, #32	@ MEM[(volatile uint8 *)-536805356B],
 141 00a8 FCFFFF0A 		beq	.L23	@,
 142 00ac 0010C2E5 		strb	r1, [r2, #0]	@ D.2132, MEM[(volatile uint8 *)-536805376B]
 143 00b0 0110F0E5 		ldrb	r1, [r0, #1]!	@ zero_extendqisi2	@ D.2132, MEM[base: D.2261_20, offset: 0B]
 144 00b4 000051E3 		cmp	r1, #0	@ D.2132,
 145 00b8 F8FFFF1A 		bne	.L23	@,
 146 00bc 1EFF2FE1 		bx	lr	@
 147              	.L25:
 148              		.align	2
 149              	.L24:
 150 00c0 000001E0 		.word	-536805376
 151              		.size	lcd_print_string, .-lcd_print_string
 152              		.align	2
 153              		.global	lcd_init
 154              		.type	lcd_init, %function
 155              	lcd_init:
 156              		@ args = 0, pretend = 0, frame = 0
 157              		@ frame_needed = 0, uses_anonymous_args = 0
 158              		@ link register save eliminated.
 159 00c4 34209FE5 		ldr	r2, .L31	@ tmp155,
 160              	.L27:
 161 00c8 1430D2E5 		ldrb	r3, [r2, #20]	@ zero_extendqisi2	@ MEM[(volatile uint8 *)-536805356B], MEM[(volatile uint8 *)
 162 00cc 200013E3 		tst	r3, #32	@ MEM[(volatile uint8 *)-536805356B],
 163 00d0 28309FE5 		ldr	r3, .L31	@ tmp140,
 164 00d4 FBFFFF0A 		beq	.L27	@,
 165 00d8 2D20E0E3 		mvn	r2, #45	@ tmp145,
 166 00dc 0020C3E5 		strb	r2, [r3, #0]	@ tmp145, MEM[(volatile uint8 *)-536805376B]
 167 00e0 0320A0E1 		mov	r2, r3	@ tmp154, tmp140
 168              	.L28:
 169 00e4 1430D2E5 		ldrb	r3, [r2, #20]	@ zero_extendqisi2	@ MEM[(volatile uint8 *)-536805356B], MEM[(volatile uint8 *)
 170 00e8 200013E3 		tst	r3, #32	@ MEM[(volatile uint8 *)-536805356B],
 171 00ec FCFFFF0A 		beq	.L28	@,
ARM GAS  /var/folders/kw/_ttbspv15096pc01cxzg7nyh0000gn/T//ccBTqpiA.s 			page 4


 172 00f0 08309FE5 		ldr	r3, .L31	@ tmp147,
 173 00f4 2E20E0E3 		mvn	r2, #46	@ tmp152,
 174 00f8 0020C3E5 		strb	r2, [r3, #0]	@ tmp152, MEM[(volatile uint8 *)-536805376B]
 175 00fc 1EFF2FE1 		bx	lr	@
 176              	.L32:
 177              		.align	2
 178              	.L31:
 179 0100 000001E0 		.word	-536805376
 180              		.size	lcd_init, .-lcd_init
 181              		.align	2
 182              		.global	lcd_print_hex1
 183              		.type	lcd_print_hex1, %function
 184              	lcd_print_hex1:
 185              		@ args = 0, pretend = 0, frame = 0
 186              		@ frame_needed = 0, uses_anonymous_args = 0
 187              		@ link register save eliminated.
 188 0104 0F0000E2 		and	r0, r0, #15	@ tmp145, inValue,
 189 0108 090050E3 		cmp	r0, #9	@ tmp145,
 190 010c 3C209FE5 		ldr	r2, .L42	@ tmp160,
 191 0110 37008082 		addhi	r0, r0, #55	@ D.2130, tmp145,
 192 0114 0600008A 		bhi	.L37	@,
 193 0118 300080E2 		add	r0, r0, #48	@ D.2127, tmp145,
 194              	.L35:
 195 011c 1430D2E5 		ldrb	r3, [r2, #20]	@ zero_extendqisi2	@ MEM[(volatile uint8 *)-536805356B], MEM[(volatile uint8 *)
 196 0120 200013E3 		tst	r3, #32	@ MEM[(volatile uint8 *)-536805356B],
 197 0124 FCFFFF0A 		beq	.L35	@,
 198              	.L40:
 199 0128 20309FE5 		ldr	r3, .L42	@ tmp154,
 200 012c 0000C3E5 		strb	r0, [r3, #0]	@ D.2130, MEM[(volatile uint8 *)-536805376B]
 201 0130 1EFF2FE1 		bx	lr	@
 202              	.L37:
 203 0134 1430D2E5 		ldrb	r3, [r2, #20]	@ zero_extendqisi2	@ MEM[(volatile uint8 *)-536805356B], MEM[(volatile uint8 *)
 204 0138 200013E3 		tst	r3, #32	@ MEM[(volatile uint8 *)-536805356B],
 205 013c F9FFFF1A 		bne	.L40	@,
 206 0140 1430D2E5 		ldrb	r3, [r2, #20]	@ zero_extendqisi2	@ MEM[(volatile uint8 *)-536805356B], MEM[(volatile uint8 *)
 207 0144 200013E3 		tst	r3, #32	@ MEM[(volatile uint8 *)-536805356B],
 208 0148 F9FFFF0A 		beq	.L37	@,
 209 014c F5FFFFEA 		b	.L40	@
 210              	.L43:
 211              		.align	2
 212              	.L42:
 213 0150 000001E0 		.word	-536805376
 214              		.size	lcd_print_hex1, .-lcd_print_hex1
 215              		.align	2
 216              		.global	lcd_print_unsigned
 217              		.type	lcd_print_unsigned, %function
 218              	lcd_print_unsigned:
 219              		@ args = 0, pretend = 0, frame = 0
 220              		@ frame_needed = 0, uses_anonymous_args = 0
 221 0154 090050E3 		cmp	r0, #9	@ inValue,
 222 0158 30402DE9 		stmfd	sp!, {r4, r5, lr}	@,
 223 015c 0040A0E1 		mov	r4, r0	@ inValue, inValue
 224 0160 0800008A 		bhi	.L45	@,
 225 0164 304080E2 		add	r4, r0, #48	@ tmp148, inValue,
 226 0168 58209FE5 		ldr	r2, .L51	@ tmp174,
 227 016c FF4004E2 		and	r4, r4, #255	@ D.2117, tmp148,
 228              	.L46:
ARM GAS  /var/folders/kw/_ttbspv15096pc01cxzg7nyh0000gn/T//ccBTqpiA.s 			page 5


 229 0170 1430D2E5 		ldrb	r3, [r2, #20]	@ zero_extendqisi2	@ MEM[(volatile uint8 *)-536805356B], MEM[(volatile uint8 *)
 230 0174 200013E3 		tst	r3, #32	@ MEM[(volatile uint8 *)-536805356B],
 231 0178 FCFFFF0A 		beq	.L46	@,
 232 017c 44309FE5 		ldr	r3, .L51	@ tmp149,
 233 0180 0040C3E5 		strb	r4, [r3, #0]	@ D.2117, MEM[(volatile uint8 *)-536805376B]
 234 0184 3080BDE8 		ldmfd	sp!, {r4, r5, pc}	@
 235              	.L45:
 236 0188 3C509FE5 		ldr	r5, .L51+4	@ tmp157,
 237 018c 903585E0 		umull	r3, r5, r0, r5	@, tmp156, inValue, tmp157
 238 0190 A551A0E1 		mov	r5, r5, lsr #3	@ tmp155, tmp156,
 239 0194 0500A0E1 		mov	r0, r5	@, tmp155
 240 0198 055185E0 		add	r5, r5, r5, asl #2	@, tmp163, tmp155, tmp155,
 241 019c FEFFFFEB 		bl	lcd_print_unsigned	@
 242 01a0 851044E0 		sub	r1, r4, r5, asl #1	@ tmp165, inValue, tmp163,
 243 01a4 301081E2 		add	r1, r1, #48	@ tmp167, tmp165,
 244 01a8 18209FE5 		ldr	r2, .L51	@ tmp175,
 245 01ac FF1001E2 		and	r1, r1, #255	@ D.2276, tmp167,
 246              	.L48:
 247 01b0 1430D2E5 		ldrb	r3, [r2, #20]	@ zero_extendqisi2	@ MEM[(volatile uint8 *)-536805356B], MEM[(volatile uint8 *)
 248 01b4 200013E3 		tst	r3, #32	@ MEM[(volatile uint8 *)-536805356B],
 249 01b8 FCFFFF0A 		beq	.L48	@,
 250 01bc 04309FE5 		ldr	r3, .L51	@ tmp168,
 251 01c0 0010C3E5 		strb	r1, [r3, #0]	@ D.2276, MEM[(volatile uint8 *)-536805376B]
 252 01c4 3080BDE8 		ldmfd	sp!, {r4, r5, pc}	@
 253              	.L52:
 254              		.align	2
 255              	.L51:
 256 01c8 000001E0 		.word	-536805376
 257 01cc CDCCCCCC 		.word	-858993459
 258              		.size	lcd_print_unsigned, .-lcd_print_unsigned
 259              		.align	2
 260              		.global	lcd_print_unsigned_with_leading_spaces
 261              		.type	lcd_print_unsigned_with_leading_spaces, %function
 262              	lcd_print_unsigned_with_leading_spaces:
 263              		@ args = 0, pretend = 0, frame = 0
 264              		@ frame_needed = 0, uses_anonymous_args = 0
 265              		@ link register save eliminated.
 266 01d0 090050E3 		cmp	r0, #9	@ inValue,
 267 01d4 04402DE5 		str	r4, [sp, #-4]!	@,
 268 01d8 01C0A093 		movls	ip, #1	@ digits,
 269 01dc 0700009A 		bls	.L54	@,
 270 01e0 4C209FE5 		ldr	r2, .L64	@ tmp153,
 271 01e4 0030A0E1 		mov	r3, r0	@ v, inValue
 272 01e8 01C0A0E3 		mov	ip, #1	@ digits,
 273              	.L55:
 274 01ec 924383E0 		umull	r4, r3, r2, r3	@, tmp142, tmp153, v
 275 01f0 A331A0E1 		mov	r3, r3, lsr #3	@ v, tmp142,
 276 01f4 090053E3 		cmp	r3, #9	@ v,
 277 01f8 01C08CE2 		add	ip, ip, #1	@ digits, digits,
 278 01fc FAFFFF8A 		bhi	.L55	@,
 279              	.L54:
 280 0200 01005CE1 		cmp	ip, r1	@ digits, inDisplayWidth
 281 0204 0800002A 		bcs	.L56	@,
 282 0208 28209FE5 		ldr	r2, .L64+4	@ tmp151,
 283 020c 2040A0E3 		mov	r4, #32	@ tmp152,
 284              	.L63:
 285 0210 1430D2E5 		ldrb	r3, [r2, #20]	@ zero_extendqisi2	@ MEM[(volatile uint8 *)-536805356B], MEM[(volatile uint8 *)
ARM GAS  /var/folders/kw/_ttbspv15096pc01cxzg7nyh0000gn/T//ccBTqpiA.s 			page 6


 286 0214 200013E3 		tst	r3, #32	@ MEM[(volatile uint8 *)-536805356B],
 287 0218 FCFFFF0A 		beq	.L63	@,
 288 021c 01C08CE2 		add	ip, ip, #1	@ digits, digits,
 289 0220 0C0051E1 		cmp	r1, ip	@ inDisplayWidth, digits
 290 0224 0040C2E5 		strb	r4, [r2, #0]	@ tmp152, MEM[(volatile uint8 *)-536805376B]
 291 0228 F8FFFF8A 		bhi	.L63	@,
 292              	.L56:
 293 022c 1000BDE8 		ldmfd	sp!, {r4}
 294 0230 FEFFFFEA 		b	lcd_print_unsigned	@
 295              	.L65:
 296              		.align	2
 297              	.L64:
 298 0234 CDCCCCCC 		.word	-858993459
 299 0238 000001E0 		.word	-536805376
 300              		.size	lcd_print_unsigned_with_leading_spaces, .-lcd_print_unsigned_with_leading_spaces
 301              		.align	2
 302              		.global	lcd_print_signed
 303              		.type	lcd_print_signed, %function
 304              	lcd_print_signed:
 305              		@ args = 0, pretend = 0, frame = 0
 306              		@ frame_needed = 0, uses_anonymous_args = 0
 307              		@ link register save eliminated.
 308 023c 003050E2 		subs	r3, r0, #0	@ inValue, inValue
 309 0240 20109FB5 		ldrlt	r1, .L71	@ tmp149,
 310 0244 060000AA 		bge	.L70	@,
 311              	.L68:
 312 0248 1420D1E5 		ldrb	r2, [r1, #20]	@ zero_extendqisi2	@ MEM[(volatile uint8 *)-536805356B], MEM[(volatile uint8 *)
 313 024c 200012E3 		tst	r2, #32	@ MEM[(volatile uint8 *)-536805356B],
 314 0250 FCFFFF0A 		beq	.L68	@,
 315 0254 000063E2 		rsb	r0, r3, #0	@, inValue
 316 0258 08309FE5 		ldr	r3, .L71	@ tmp141,
 317 025c 2D20A0E3 		mov	r2, #45	@ tmp146,
 318 0260 0020C3E5 		strb	r2, [r3, #0]	@ tmp146, MEM[(volatile uint8 *)-536805376B]
 319              	.L70:
 320 0264 FEFFFFEA 		b	lcd_print_unsigned	@
 321              	.L72:
 322              		.align	2
 323              	.L71:
 324 0268 000001E0 		.word	-536805376
 325              		.size	lcd_print_signed, .-lcd_print_signed
 326              		.align	2
 327              		.global	lcd_print_signed_with_leading_spaces
 328              		.type	lcd_print_signed_with_leading_spaces, %function
 329              	lcd_print_signed_with_leading_spaces:
 330              		@ args = 0, pretend = 0, frame = 0
 331              		@ frame_needed = 0, uses_anonymous_args = 0
 332              		@ link register save eliminated.
 333 026c 000050E3 		cmp	r0, #0	@ inValue
 334 0270 003060B2 		rsblt	r3, r0, #0	@ v, inValue
 335 0274 0030A0A1 		movge	r3, r0	@ v, inValue
 336 0278 02C0A0B3 		movlt	ip, #2	@ digits,
 337 027c 01C0A0A3 		movge	ip, #1	@ digits,
 338 0280 090053E3 		cmp	r3, #9	@ v,
 339 0284 30002DE9 		stmfd	sp!, {r4, r5}	@,
 340 0288 060000DA 		ble	.L75	@,
 341 028c 48409FE5 		ldr	r4, .L86	@ tmp155,
 342              	.L82:
ARM GAS  /var/folders/kw/_ttbspv15096pc01cxzg7nyh0000gn/T//ccBTqpiA.s 			page 7


 343 0290 9453C2E0 		smull	r5, r2, r4, r3	@, tmp142, tmp155, v
 344 0294 C33FA0E1 		mov	r3, r3, asr #31	@ tmp145, v,
 345 0298 423163E0 		rsb	r3, r3, r2, asr #2	@, v, tmp145, tmp142,
 346 029c 090053E3 		cmp	r3, #9	@ v,
 347 02a0 01C08CE2 		add	ip, ip, #1	@ digits, digits,
 348 02a4 F9FFFFCA 		bgt	.L82	@,
 349              	.L75:
 350 02a8 0C0051E1 		cmp	r1, ip	@ inDisplayWidth, digits
 351 02ac 0800009A 		bls	.L77	@,
 352 02b0 28209FE5 		ldr	r2, .L86+4	@ tmp153,
 353 02b4 2040A0E3 		mov	r4, #32	@ tmp154,
 354              	.L85:
 355 02b8 1430D2E5 		ldrb	r3, [r2, #20]	@ zero_extendqisi2	@ MEM[(volatile uint8 *)-536805356B], MEM[(volatile uint8 *)
 356 02bc 200013E3 		tst	r3, #32	@ MEM[(volatile uint8 *)-536805356B],
 357 02c0 FCFFFF0A 		beq	.L85	@,
 358 02c4 01C08CE2 		add	ip, ip, #1	@ digits, digits,
 359 02c8 0C0051E1 		cmp	r1, ip	@ inDisplayWidth, digits
 360 02cc 0040C2E5 		strb	r4, [r2, #0]	@ tmp154, MEM[(volatile uint8 *)-536805376B]
 361 02d0 F8FFFF8A 		bhi	.L85	@,
 362              	.L77:
 363 02d4 3000BDE8 		ldmfd	sp!, {r4, r5}
 364 02d8 FEFFFFEA 		b	lcd_print_signed	@
 365              	.L87:
 366              		.align	2
 367              	.L86:
 368 02dc 67666666 		.word	1717986919
 369 02e0 000001E0 		.word	-536805376
 370              		.size	lcd_print_signed_with_leading_spaces, .-lcd_print_signed_with_leading_spaces
 371              		.align	2
 372              		.global	lcd_print_hex2
 373              		.type	lcd_print_hex2, %function
 374              	lcd_print_hex2:
 375              		@ args = 0, pretend = 0, frame = 0
 376              		@ frame_needed = 0, uses_anonymous_args = 0
 377 02e4 10402DE9 		stmfd	sp!, {r4, lr}	@,
 378 02e8 FF4000E2 		and	r4, r0, #255	@ inValue, inValue,
 379 02ec 2402A0E1 		mov	r0, r4, lsr #4	@, inValue,
 380 02f0 FEFFFFEB 		bl	lcd_print_hex1	@
 381 02f4 0400A0E1 		mov	r0, r4	@, inValue
 382 02f8 1040BDE8 		ldmfd	sp!, {r4, lr}	@
 383 02fc FEFFFFEA 		b	lcd_print_hex1	@
 384              		.size	lcd_print_hex2, .-lcd_print_hex2
 385              		.align	2
 386              		.global	lcd_print_hex4
 387              		.type	lcd_print_hex4, %function
 388              	lcd_print_hex4:
 389              		@ args = 0, pretend = 0, frame = 0
 390              		@ frame_needed = 0, uses_anonymous_args = 0
 391 0300 0008A0E1 		mov	r0, r0, asl #16	@ tmp141, inValue,
 392 0304 10402DE9 		stmfd	sp!, {r4, lr}	@,
 393 0308 2048A0E1 		mov	r4, r0, lsr #16	@ inValue, tmp141,
 394 030c 200CA0E1 		mov	r0, r0, lsr #24	@, tmp141,
 395 0310 FEFFFFEB 		bl	lcd_print_hex2	@
 396 0314 FF0004E2 		and	r0, r4, #255	@ tmp145, inValue,
 397 0318 1040BDE8 		ldmfd	sp!, {r4, lr}	@
 398 031c FEFFFFEA 		b	lcd_print_hex2	@
 399              		.size	lcd_print_hex4, .-lcd_print_hex4
ARM GAS  /var/folders/kw/_ttbspv15096pc01cxzg7nyh0000gn/T//ccBTqpiA.s 			page 8


 400              		.align	2
 401              		.global	lcd_print_hex8
 402              		.type	lcd_print_hex8, %function
 403              	lcd_print_hex8:
 404              		@ args = 0, pretend = 0, frame = 0
 405              		@ frame_needed = 0, uses_anonymous_args = 0
 406 0320 10402DE9 		stmfd	sp!, {r4, lr}	@,
 407 0324 0040A0E1 		mov	r4, r0	@ inValue, inValue
 408 0328 2008A0E1 		mov	r0, r0, lsr #16	@, inValue,
 409 032c FEFFFFEB 		bl	lcd_print_hex4	@
 410 0330 0408A0E1 		mov	r0, r4, asl #16	@ tmp144, inValue,
 411 0334 2008A0E1 		mov	r0, r0, lsr #16	@, tmp144,
 412 0338 1040BDE8 		ldmfd	sp!, {r4, lr}	@
 413 033c FEFFFFEA 		b	lcd_print_hex4	@
 414              		.size	lcd_print_hex8, .-lcd_print_hex8
 415              		.align	2
 416              		.global	lcd_print_spaces
 417              		.type	lcd_print_spaces, %function
 418              	lcd_print_spaces:
 419              		@ args = 0, pretend = 0, frame = 0
 420              		@ frame_needed = 0, uses_anonymous_args = 0
 421              		@ link register save eliminated.
 422 0340 001050E2 		subs	r1, r0, #0	@ inSpaceCount, inSpaceCount
 423 0344 1EFF2F01 		bxeq	lr	@
 424 0348 1C209FE5 		ldr	r2, .L98	@ tmp146,
 425 034c 2000A0E3 		mov	r0, #32	@ tmp147,
 426              	.L97:
 427 0350 1430D2E5 		ldrb	r3, [r2, #20]	@ zero_extendqisi2	@ MEM[(volatile uint8 *)-536805356B], MEM[(volatile uint8 *)
 428 0354 200013E3 		tst	r3, #32	@ MEM[(volatile uint8 *)-536805356B],
 429 0358 FCFFFF0A 		beq	.L97	@,
 430 035c 011051E2 		subs	r1, r1, #1	@ spaceCount, spaceCount,
 431 0360 0000C2E5 		strb	r0, [r2, #0]	@ tmp147, MEM[(volatile uint8 *)-536805376B]
 432 0364 F9FFFF1A 		bne	.L97	@,
 433 0368 1EFF2FE1 		bx	lr	@
 434              	.L99:
 435              		.align	2
 436              	.L98:
 437 036c 000001E0 		.word	-536805376
 438              		.size	lcd_print_spaces, .-lcd_print_spaces
 439              		.align	2
 440              		.global	programmer_uart1
 441              		.type	programmer_uart1, %function
 442              	programmer_uart1:
 443              		@ args = 0, pretend = 0, frame = 0
 444              		@ frame_needed = 0, uses_anonymous_args = 0
 445              		@ link register save eliminated.
 446 0370 48309FE5 		ldr	r3, .L101	@ tmp138,
 447 0374 0010A0E3 		mov	r1, #0	@ tmp142,
 448 0378 7F20E0E3 		mvn	r2, #127	@ tmp139,
 449 037c 3F00E0E3 		mvn	r0, #63	@ tmp145,
 450 0380 0C20C3E5 		strb	r2, [r3, #12]	@ tmp139, MEM[(volatile uint8 *)-536805364B]
 451 0384 0410C3E5 		strb	r1, [r3, #4]	@ tmp142, MEM[(volatile uint8 *)-536805372B]
 452 0388 0000C3E5 		strb	r0, [r3, #0]	@ tmp145, MEM[(volatile uint8 *)-536805376B]
 453 038c 0300A0E3 		mov	r0, #3	@ tmp148,
 454 0390 0C00C3E5 		strb	r0, [r3, #12]	@ tmp148, MEM[(volatile uint8 *)-536805364B]
 455 0394 0810C3E5 		strb	r1, [r3, #8]	@ tmp142, MEM[(volatile uint8 *)-536805368B]
 456 0398 0110A0E3 		mov	r1, #1	@ tmp154,
ARM GAS  /var/folders/kw/_ttbspv15096pc01cxzg7nyh0000gn/T//ccBTqpiA.s 			page 9


 457 039c 20209FE5 		ldr	r2, .L101+4	@ tmp156,
 458 03a0 0810C3E5 		strb	r1, [r3, #8]	@ tmp154, MEM[(volatile uint8 *)-536805368B]
 459 03a4 003092E5 		ldr	r3, [r2, #0]	@ D.2089, MEM[(volatile uint32 *)-536690688B]
 460 03a8 0F38C3E3 		bic	r3, r3, #983040	@ D.2090, D.2089,
 461 03ac 003082E5 		str	r3, [r2, #0]	@ D.2090, MEM[(volatile uint32 *)-536690688B]
 462 03b0 003092E5 		ldr	r3, [r2, #0]	@ D.2091, MEM[(volatile uint32 *)-536690688B]
 463 03b4 053883E3 		orr	r3, r3, #327680	@ D.2092, D.2091,
 464 03b8 003082E5 		str	r3, [r2, #0]	@ D.2092, MEM[(volatile uint32 *)-536690688B]
 465 03bc 1EFF2FE1 		bx	lr	@
 466              	.L102:
 467              		.align	2
 468              	.L101:
 469 03c0 000001E0 		.word	-536805376
 470 03c4 00C002E0 		.word	-536690688
 471              		.size	programmer_uart1, .-programmer_uart1
 472              		.align	2
 473              		.global	recevoir_caractere_serie1
 474              		.type	recevoir_caractere_serie1, %function
 475              	recevoir_caractere_serie1:
 476              		@ args = 0, pretend = 0, frame = 0
 477              		@ frame_needed = 0, uses_anonymous_args = 0
 478              		@ link register save eliminated.
 479 03c8 14209FE5 		ldr	r2, .L105	@ tmp139,
 480 03cc 1430D2E5 		ldrb	r3, [r2, #20]	@ zero_extendqisi2	@ MEM[(volatile uint8 *)-536805356B], MEM[(volatile uint8 *)
 481 03d0 013013E2 		ands	r3, r3, #1	@ recu, MEM[(volatile uint8 *)-536805356B],
 482 03d4 0020D215 		ldrneb	r2, [r2, #0]	@ zero_extendqisi2	@ MEM[(volatile uint8 *)-536805376B], MEM[(volatile uint8 *
 483 03d8 0020C015 		strneb	r2, [r0, #0]	@ MEM[(volatile uint8 *)-536805376B], *outCaractere_6(D)
 484 03dc 0300A0E1 		mov	r0, r3	@, recu
 485 03e0 1EFF2FE1 		bx	lr	@
 486              	.L106:
 487              		.align	2
 488              	.L105:
 489 03e4 000001E0 		.word	-536805376
 490              		.size	recevoir_caractere_serie1, .-recevoir_caractere_serie1
 491              		.align	2
 492              		.global	attente_caractere_serie1
 493              		.type	attente_caractere_serie1, %function
 494              	attente_caractere_serie1:
 495              		@ args = 0, pretend = 0, frame = 0
 496              		@ frame_needed = 0, uses_anonymous_args = 0
 497              		@ link register save eliminated.
 498 03e8 14209FE5 		ldr	r2, .L110	@ tmp148,
 499              	.L108:
 500 03ec 1430D2E5 		ldrb	r3, [r2, #20]	@ zero_extendqisi2	@ MEM[(volatile uint8 *)-536805356B], MEM[(volatile uint8 *)
 501 03f0 010013E3 		tst	r3, #1	@ MEM[(volatile uint8 *)-536805356B],
 502 03f4 FCFFFF0A 		beq	.L108	@,
 503 03f8 04309FE5 		ldr	r3, .L110	@ tmp138,
 504 03fc 0000D3E5 		ldrb	r0, [r3, #0]	@ zero_extendqisi2	@ MEM[(volatile uint8 *)-536805376B], MEM[(volatile uint8 *)-
 505 0400 1EFF2FE1 		bx	lr	@
 506              	.L111:
 507              		.align	2
 508              	.L110:
 509 0404 000001E0 		.word	-536805376
 510              		.size	attente_caractere_serie1, .-attente_caractere_serie1
 511              		.align	2
 512              		.global	envoyer_caractere_serie1
 513              		.type	envoyer_caractere_serie1, %function
ARM GAS  /var/folders/kw/_ttbspv15096pc01cxzg7nyh0000gn/T//ccBTqpiA.s 			page 10


 514              	envoyer_caractere_serie1:
 515              		@ args = 0, pretend = 0, frame = 0
 516              		@ frame_needed = 0, uses_anonymous_args = 0
 517              		@ link register save eliminated.
 518 0408 18209FE5 		ldr	r2, .L115	@ tmp145,
 519 040c FF0000E2 		and	r0, r0, #255	@ inCaractere, inCaractere,
 520              	.L113:
 521 0410 1430D2E5 		ldrb	r3, [r2, #20]	@ zero_extendqisi2	@ MEM[(volatile uint8 *)-536805356B], MEM[(volatile uint8 *)
 522 0414 200013E3 		tst	r3, #32	@ MEM[(volatile uint8 *)-536805356B],
 523 0418 FCFFFF0A 		beq	.L113	@,
 524 041c 04309FE5 		ldr	r3, .L115	@ tmp139,
 525 0420 0000C3E5 		strb	r0, [r3, #0]	@ inCaractere, MEM[(volatile uint8 *)-536805376B]
 526 0424 1EFF2FE1 		bx	lr	@
 527              	.L116:
 528              		.align	2
 529              	.L115:
 530 0428 000001E0 		.word	-536805376
 531              		.size	envoyer_caractere_serie1, .-envoyer_caractere_serie1
 532              		.ident	"GCC: (GNU) 4.6.1"
ARM GAS  /var/folders/kw/_ttbspv15096pc01cxzg7nyh0000gn/T//ccBTqpiA.s 			page 11

